target datalayout = "e-m:e-p270:32:32-p271:32:32-p272:64:64-i64:64-i128:128-f80:128-n8:16:32:64-S128"
target triple = "x86_64-pc-linux-gnu"

%struct.hmac_ctx_st = type { ptr, ptr, ptr, ptr, %union.anon }
%union.anon = type { i32 }

; Function Attrs: nounwind uwtable
define i32 @HMAC_Final(ptr noundef %0, ptr noundef %1, ptr noundef %2) #0 {
  %4 = alloca i32, align 4
  %5 = alloca ptr, align 8
  %6 = alloca ptr, align 8
  %7 = alloca ptr, align 8
  %8 = alloca i32, align 4
  %9 = alloca [64 x i8], align 16
  %10 = alloca i32, align 4
  store ptr %0, ptr %5, align 8, !tbaa !3
  store ptr %1, ptr %6, align 8, !tbaa !25
  store ptr %2, ptr %7, align 8, !tbaa !29
  call void @llvm.lifetime.start.p0(i64 4, ptr %8) #6
  call void @llvm.lifetime.start.p0(i64 64, ptr %9) #6
  %11 = load ptr, ptr %5, align 8, !tbaa !3
  %12 = getelementptr inbounds nuw %struct.hmac_ctx_st, ptr %11, i32 0, i32 0
  %13 = load ptr, ptr %12, align 8, !tbaa !15
  %14 = icmp ne ptr %13, null
  br i1 %14, label %16, label %15

15:                                               ; preds = %3
  br label %54

16:                                               ; preds = %3
  %17 = load ptr, ptr %5, align 8, !tbaa !3
  %18 = getelementptr inbounds nuw %struct.hmac_ctx_st, ptr %17, i32 0, i32 1
  %19 = load ptr, ptr %18, align 8, !tbaa !18
  %20 = getelementptr inbounds [64 x i8], ptr %9, i64 0, i64 0
  %21 = call i32 @EVP_DigestFinal_ex(ptr noundef %19, ptr noundef %20, ptr noundef %8)
  %22 = icmp ne i32 %21, 0
  br i1 %22, label %24, label %23

23:                                               ; preds = %16
  br label %54

24:                                               ; preds = %16
  %25 = load ptr, ptr %5, align 8, !tbaa !3
  %26 = getelementptr inbounds nuw %struct.hmac_ctx_st, ptr %25, i32 0, i32 1
  %27 = load ptr, ptr %26, align 8, !tbaa !18
  %28 = load ptr, ptr %5, align 8, !tbaa !3
  %29 = getelementptr inbounds nuw %struct.hmac_ctx_st, ptr %28, i32 0, i32 3
  %30 = load ptr, ptr %29, align 8, !tbaa !24
  %31 = call i32 @EVP_MD_CTX_copy_ex(ptr noundef %27, ptr noundef %30)
  %32 = icmp ne i32 %31, 0
  br i1 %32, label %34, label %33

33:                                               ; preds = %24
  br label %54

34:                                               ; preds = %24
  %35 = load ptr, ptr %5, align 8, !tbaa !3
  %36 = getelementptr inbounds nuw %struct.hmac_ctx_st, ptr %35, i32 0, i32 1
  %37 = load ptr, ptr %36, align 8, !tbaa !18
  %38 = getelementptr inbounds [64 x i8], ptr %9, i64 0, i64 0
  %39 = load i32, ptr %8, align 4, !tbaa !9
  %40 = zext i32 %39 to i64
  %41 = call i32 @EVP_DigestUpdate(ptr noundef %37, ptr noundef %38, i64 noundef %40)
  %42 = icmp ne i32 %41, 0
  br i1 %42, label %44, label %43

43:                                               ; preds = %34
  br label %54

44:                                               ; preds = %34
  %45 = load ptr, ptr %5, align 8, !tbaa !3
  %46 = getelementptr inbounds nuw %struct.hmac_ctx_st, ptr %45, i32 0, i32 1
  %47 = load ptr, ptr %46, align 8, !tbaa !18
  %48 = load ptr, ptr %6, align 8, !tbaa !25
  %49 = load ptr, ptr %7, align 8, !tbaa !29
  %50 = call i32 @EVP_DigestFinal_ex(ptr noundef %47, ptr noundef %48, ptr noundef %49)
  %51 = icmp ne i32 %50, 0
  br i1 %51, label %53, label %52

52:                                               ; preds = %44
  br label %54

53:                                               ; preds = %44
  store i32 1, ptr %4, align 4
  store i32 1, ptr %10, align 4
  br label %55

54:                                               ; preds = %52, %43, %33, %23, %15
  store i32 0, ptr %4, align 4
  store i32 1, ptr %10, align 4
  br label %55

55:                                               ; preds = %54, %53
  call void @llvm.lifetime.end.p0(i64 64, ptr %9) #6
  call void @llvm.lifetime.end.p0(i64 4, ptr %8) #6
  %56 = load i32, ptr %4, align 4
  ret i32 %56
}