; Function Attrs: nounwind uwtable
define range(i32 0, 2) i32 @HMAC_Final(ptr noundef readonly captures(none) %0, ptr noundef %1, ptr noundef %2) local_unnamed_addr #0 {
  %4 = alloca i32, align 4
  %5 = alloca [64 x i8], align 16
  call void @llvm.lifetime.start.p0(i64 4, ptr nonnull %4) #7
  call void @llvm.lifetime.start.p0(i64 64, ptr nonnull %5) #7
  %6 = load ptr, ptr %0, align 8, !tbaa !3
  %.not = icmp eq ptr %6, null
  br i1 %.not, label %24, label %7

7:                                                ; preds = %3
  %8 = getelementptr inbounds nuw i8, ptr %0, i64 8
  %9 = load ptr, ptr %8, align 8, !tbaa !11
  %10 = call i32 @EVP_DigestFinal_ex(ptr noundef %9, ptr noundef nonnull %5, ptr noundef nonnull %4) #7
  %.not8 = icmp eq i32 %10, 0
  br i1 %.not8, label %24, label %11

11:                                               ; preds = %7
  %12 = load ptr, ptr %8, align 8, !tbaa !11
  %13 = getelementptr inbounds nuw i8, ptr %0, i64 24
  %14 = load ptr, ptr %13, align 8, !tbaa !19
  %15 = call i32 @EVP_MD_CTX_copy_ex(ptr noundef %12, ptr noundef %14) #7
  %.not9 = icmp eq i32 %15, 0
  br i1 %.not9, label %24, label %16

16:                                               ; preds = %11
  %17 = load ptr, ptr %8, align 8, !tbaa !11
  %18 = load i32, ptr %4, align 4, !tbaa !12
  %19 = zext i32 %18 to i64
  %20 = call i32 @EVP_DigestUpdate(ptr noundef %17, ptr noundef nonnull %5, i64 noundef %19) #7
  %.not10 = icmp eq i32 %20, 0
  br i1 %.not10, label %24, label %21

21:                                               ; preds = %16
  %22 = load ptr, ptr %8, align 8, !tbaa !11
  %23 = call i32 @EVP_DigestFinal_ex(ptr noundef %22, ptr noundef %1, ptr noundef %2) #7
  %.not11 = icmp eq i32 %23, 0
  br i1 %.not11, label %24, label %25

24:                                               ; preds = %21, %16, %11, %7, %3
  br label %25

25:                                               ; preds = %21, %24
  %.0 = phi i32 [ 0, %24 ], [ 1, %21 ]
  call void @llvm.lifetime.end.p0(i64 64, ptr nonnull %5) #7
  call void @llvm.lifetime.end.p0(i64 4, ptr nonnull %4) #7
  ret i32 %.0
}